target datalayout = "e-m:e-p270:32:32-p271:32:32-p272:64:64-i64:64-i128:128-f80:128-n8:16:32:64-S128"
target triple = "x86_64-pc-linux-gnu"

%"class.icu_77::CollationRootElements" = type <{ ptr, i32, [4 x i8] }>

; Function Attrs: mustprogress nounwind uwtable
define linkonce_odr noundef i32 @_ZNK6icu_7721CollationRootElements20getSecondaryBoundaryEv(ptr noundef nonnull align 8 dereferenceable(12) %0) #2 comdat align 2 {
  %2 = alloca ptr, align 8
  store ptr %0, ptr %2, align 8, !tbaa !3
  %3 = load ptr, ptr %2, align 8
  %4 = getelementptr inbounds nuw %"class.icu_77::CollationRootElements", ptr %3, i32 0, i32 0
  %5 = load ptr, ptr %4, align 8, !tbaa !10
  %6 = getelementptr inbounds nuw i32, ptr %5, i64 4
  %7 = load i32, ptr %6, align 4, !tbaa !8
  %8 = lshr i32 %7, 8
  %9 = and i32 %8, 65280
  ret i32 %9
}

; Function Attrs: mustprogress nounwind uwtable
define noundef i32 @_ZNK6icu_7721CollationRootElements24getFirstSecTerForPrimaryEi(ptr noundef nonnull align 8 dereferenceable(12) %0, i32 noundef %1) #2 align 2 {
  %3 = alloca i32, align 4
  %4 = alloca ptr, align 8
  %5 = alloca i32, align 4
  %6 = alloca i32, align 4
  %7 = alloca i32, align 4
  store ptr %0, ptr %4, align 8, !tbaa !3
  store i32 %1, ptr %5, align 4, !tbaa !8
  %8 = load ptr, ptr %4, align 8
  call void @llvm.lifetime.start.p0(i64 4, ptr %6) #4
  %9 = getelementptr inbounds nuw %"class.icu_77::CollationRootElements", ptr %8, i32 0, i32 0
  %10 = load ptr, ptr %9, align 8, !tbaa !10
  %11 = load i32, ptr %5, align 4, !tbaa !8
  %12 = sext i32 %11 to i64
  %13 = getelementptr inbounds i32, ptr %10, i64 %12
  %14 = load i32, ptr %13, align 4, !tbaa !8
  store i32 %14, ptr %6, align 4, !tbaa !8
  %15 = load i32, ptr %6, align 4, !tbaa !8
  %16 = and i32 %15, 128
  %17 = icmp eq i32 %16, 0
  br i1 %17, label %18, label %19

18:                                               ; preds = %2
  store i32 83887360, ptr %3, align 4
  store i32 1, ptr %7, align 4
  br label %27

19:                                               ; preds = %2
  %20 = load i32, ptr %6, align 4, !tbaa !8
  %21 = and i32 %20, -129
  store i32 %21, ptr %6, align 4, !tbaa !8
  %22 = load i32, ptr %6, align 4, !tbaa !8
  %23 = icmp ugt i32 %22, 83887360
  br i1 %23, label %24, label %25

24:                                               ; preds = %19
  store i32 83887360, ptr %3, align 4
  store i32 1, ptr %7, align 4
  br label %27

25:                                               ; preds = %19
  %26 = load i32, ptr %6, align 4, !tbaa !8
  store i32 %26, ptr %3, align 4
  store i32 1, ptr %7, align 4
  br label %27

27:                                               ; preds = %25, %24, %18
  call void @llvm.lifetime.end.p0(i64 4, ptr %6) #4
  %28 = load i32, ptr %3, align 4
  ret i32 %28
}

; Function Attrs: mustprogress uwtable
define noundef i32 @_ZNK6icu_7721CollationRootElements17getSecondaryAfterEij(ptr noundef nonnull align 8 dereferenceable(12) %0, i32 noundef %1, i32 noundef %2) #0 align 2 {
  %4 = alloca i32, align 4
  %5 = alloca ptr, align 8
  %6 = alloca i32, align 4
  %7 = alloca i32, align 4
  %8 = alloca i32, align 4
  %9 = alloca i32, align 4
  %10 = alloca i32, align 4
  %11 = alloca i32, align 4
  store ptr %0, ptr %5, align 8, !tbaa !3
  store i32 %1, ptr %6, align 4, !tbaa !8
  store i32 %2, ptr %7, align 4, !tbaa !8
  %12 = load ptr, ptr %5, align 8
  call void @llvm.lifetime.start.p0(i64 4, ptr %8) #4
  call void @llvm.lifetime.start.p0(i64 4, ptr %9) #4
  %13 = load i32, ptr %6, align 4, !tbaa !8
  %14 = icmp eq i32 %13, 0
  br i1 %14, label %15, label %26

15:                                               ; preds = %3
  %16 = getelementptr inbounds nuw %"class.icu_77::CollationRootElements", ptr %12, i32 0, i32 0
  %17 = load ptr, ptr %16, align 8, !tbaa !10
  %18 = getelementptr inbounds nuw i32, ptr %17, i64 1
  %19 = load i32, ptr %18, align 4, !tbaa !8
  store i32 %19, ptr %6, align 4, !tbaa !8
  %20 = getelementptr inbounds nuw %"class.icu_77::CollationRootElements", ptr %12, i32 0, i32 0
  %21 = load ptr, ptr %20, align 8, !tbaa !10
  %22 = load i32, ptr %6, align 4, !tbaa !8
  %23 = sext i32 %22 to i64
  %24 = getelementptr inbounds i32, ptr %21, i64 %23
  %25 = load i32, ptr %24, align 4, !tbaa !8
  store i32 %25, ptr %8, align 4, !tbaa !8
  store i32 65536, ptr %9, align 4, !tbaa !8
  br label %31

26:                                               ; preds = %3
  %27 = load i32, ptr %6, align 4, !tbaa !8
  %28 = add nsw i32 %27, 1
  %29 = call noundef i32 @_ZNK6icu_7721CollationRootElements24getFirstSecTerForPrimaryEi(ptr noundef nonnull align 8 dereferenceable(12) %12, i32 noundef %28)
  store i32 %29, ptr %8, align 4, !tbaa !8
  %30 = call noundef i32 @_ZNK6icu_7721CollationRootElements20getSecondaryBoundaryEv(ptr noundef nonnull align 8 dereferenceable(12) %12)
  store i32 %30, ptr %9, align 4, !tbaa !8
  br label %31

31:                                               ; preds = %26, %15
  br label %32

32:                                               ; preds = %56, %31
  call void @llvm.lifetime.start.p0(i64 4, ptr %10) #4
  %33 = load i32, ptr %8, align 4, !tbaa !8
  %34 = lshr i32 %33, 16
  store i32 %34, ptr %10, align 4, !tbaa !8
  %35 = load i32, ptr %10, align 4, !tbaa !8
  %36 = load i32, ptr %7, align 4, !tbaa !8
  %37 = icmp ugt i32 %35, %36
  br i1 %37, label %38, label %40

38:                                               ; preds = %32
  %39 = load i32, ptr %10, align 4, !tbaa !8
  store i32 %39, ptr %4, align 4
  store i32 1, ptr %11, align 4
  br label %54

40:                                               ; preds = %32
  %41 = getelementptr inbounds nuw %"class.icu_77::CollationRootElements", ptr %12, i32 0, i32 0
  %42 = load ptr, ptr %41, align 8, !tbaa !10
  %43 = load i32, ptr %6, align 4, !tbaa !8
  %44 = add nsw i32 %43, 1
  store i32 %44, ptr %6, align 4, !tbaa !8
  %45 = sext i32 %44 to i64
  %46 = getelementptr inbounds i32, ptr %42, i64 %45
  %47 = load i32, ptr %46, align 4, !tbaa !8
  store i32 %47, ptr %8, align 4, !tbaa !8
  %48 = load i32, ptr %8, align 4, !tbaa !8
  %49 = and i32 %48, 128
  %50 = icmp eq i32 %49, 0
  br i1 %50, label %51, label %53

51:                                               ; preds = %40
  %52 = load i32, ptr %9, align 4, !tbaa !8
  store i32 %52, ptr %4, align 4
  store i32 1, ptr %11, align 4
  br label %54

53:                                               ; preds = %40
  store i32 0, ptr %11, align 4
  br label %54

54:                                               ; preds = %53, %51, %38
  call void @llvm.lifetime.end.p0(i64 4, ptr %10) #4
  %55 = load i32, ptr %11, align 4
  switch i32 %55, label %57 [
    i32 0, label %56
  ]

56:                                               ; preds = %54
  br label %32, !llvm.loop !26

57:                                               ; preds = %54
  call void @llvm.lifetime.end.p0(i64 4, ptr %9) #4
  call void @llvm.lifetime.end.p0(i64 4, ptr %8) #4
  %58 = load i32, ptr %4, align 4
  ret i32 %58
}