; Function Attrs: mustprogress nofree norecurse nosync nounwind willreturn memory(read, inaccessiblemem: none) uwtable
define noundef i32 @_ZNK6icu_7721CollationRootElements17getSecondaryAfterEij(ptr noundef nonnull readonly align 8 captures(none) dereferenceable(12) %0, i32 noundef %1, i32 noundef %2) local_unnamed_addr #0 align 2 {
  %4 = icmp eq i32 %1, 0
  %5 = load ptr, ptr %0, align 8, !tbaa !3
  br i1 %4, label %6, label %12

6:                                                ; preds = %3
  %7 = getelementptr inbounds nuw i8, ptr %5, i64 4
  %8 = load i32, ptr %7, align 4, !tbaa !10
  %9 = sext i32 %8 to i64
  %10 = getelementptr inbounds i32, ptr %5, i64 %9
  %11 = load i32, ptr %10, align 4, !tbaa !10
  br label %23

12:                                               ; preds = %3
  %13 = sext i32 %1 to i64
  %14 = getelementptr i32, ptr %5, i64 %13
  %15 = getelementptr i8, ptr %14, i64 4
  %16 = load i32, ptr %15, align 4, !tbaa !10
  %17 = and i32 %16, 128
  %18 = icmp eq i32 %17, 0
  %..i = tail call i32 @llvm.umin.i32(i32 %16, i32 83887360)
  %.0.i = select i1 %18, i32 83887360, i32 %..i
  %19 = getelementptr inbounds nuw i8, ptr %5, i64 16
  %20 = load i32, ptr %19, align 4, !tbaa !10
  %21 = lshr i32 %20, 8
  %22 = and i32 %21, 65280
  br label %23

23:                                               ; preds = %12, %6
  %.pre-phi = phi i64 [ %13, %12 ], [ %9, %6 ]
  %.014 = phi i32 [ %.0.i, %12 ], [ %11, %6 ]
  %.013 = phi i32 [ %22, %12 ], [ 65536, %6 ]
  br label %24

24:                                               ; preds = %27, %23
  %indvars.iv = phi i64 [ %indvars.iv.next, %27 ], [ %.pre-phi, %23 ]
  %.115 = phi i32 [ %29, %27 ], [ %.014, %23 ]
  %25 = lshr i32 %.115, 16
  %26 = icmp ugt i32 %25, %2
  br i1 %26, label %.thread, label %27

27:                                               ; preds = %24
  %indvars.iv.next = add nsw i64 %indvars.iv, 1
  %28 = getelementptr inbounds i32, ptr %5, i64 %indvars.iv.next
  %29 = load i32, ptr %28, align 4, !tbaa !10
  %30 = and i32 %29, 128
  %.not = icmp eq i32 %30, 0
  br i1 %.not, label %.thread, label %24, !llvm.loop !22

.thread:                                          ; preds = %24, %27
  %.125 = phi i32 [ %.013, %27 ], [ %25, %24 ]
  ret i32 %.125
}